; ModuleID = 'source-C-CXX/40/1037.cpp'
source_filename = "source-C-CXX/40/1037.cpp"
target datalayout = "e-m:e-p270:32:32-p271:32:32-p272:64:64-i64:64-f80:128-n8:16:32:64-S128"
target triple = "x86_64-pc-linux-gnu"

%"class.std::ios_base::Init" = type { i8 }
%"class.std::basic_ostream" = type { i32 (...)**, %"class.std::basic_ios" }
%"class.std::basic_ios" = type { %"class.std::ios_base", %"class.std::basic_ostream"*, i8, i8, %"class.std::basic_streambuf"*, %"class.std::ctype"*, %"class.std::num_put"*, %"class.std::num_get"* }
%"class.std::ios_base" = type { i32 (...)**, i64, i64, i32, i32, i32, %"struct.std::ios_base::_Callback_list"*, %"struct.std::ios_base::_Words", [8 x %"struct.std::ios_base::_Words"], i32, %"struct.std::ios_base::_Words"*, %"class.std::locale" }
%"struct.std::ios_base::_Callback_list" = type { %"struct.std::ios_base::_Callback_list"*, void (i32, %"class.std::ios_base"*, i32)*, i32, i32 }
%"struct.std::ios_base::_Words" = type { i8*, i64 }
%"class.std::locale" = type { %"class.std::locale::_Impl"* }
%"class.std::locale::_Impl" = type { i32, %"class.std::locale::facet"**, i64, %"class.std::locale::facet"**, i8** }
%"class.std::locale::facet" = type <{ i32 (...)**, i32, [4 x i8] }>
%"class.std::basic_streambuf" = type { i32 (...)**, i8*, i8*, i8*, i8*, i8*, i8*, %"class.std::locale" }
%"class.std::ctype" = type <{ %"class.std::locale::facet.base", [4 x i8], %struct.__locale_struct*, i8, [7 x i8], i32*, i32*, i16*, i8, [256 x i8], [256 x i8], i8, [6 x i8] }>
%"class.std::locale::facet.base" = type <{ i32 (...)**, i32 }>
%struct.__locale_struct = type { [13 x %struct.__locale_data*], i16*, i32*, i32*, [13 x i8*] }
%struct.__locale_data = type opaque
%"class.std::num_put" = type { %"class.std::locale::facet.base", [4 x i8] }
%"class.std::num_get" = type { %"class.std::locale::facet.base", [4 x i8] }

@_ZStL8__ioinit = internal global %"class.std::ios_base::Init" zeroinitializer, align 1
@__dso_handle = external hidden global i8
@_ZSt4cout = external global %"class.std::basic_ostream", align 8
@.str = private unnamed_addr constant [2 x i8] c" \00", align 1
@llvm.global_ctors = appending global [1 x { i32, void ()*, i8* }] [{ i32, void ()*, i8* } { i32 65535, void ()* @_GLOBAL__sub_I_1037.cpp, i8* null }]

declare void @_ZNSt8ios_base4InitC1Ev(%"class.std::ios_base::Init"* nonnull align 1 dereferenceable(1)) unnamed_addr #0

; Function Attrs: nounwind
declare void @_ZNSt8ios_base4InitD1Ev(%"class.std::ios_base::Init"* nonnull align 1 dereferenceable(1)) unnamed_addr #1

; Function Attrs: nofree nounwind
declare i32 @__cxa_atexit(void (i8*)*, i8*, i8*) local_unnamed_addr #2

; Function Attrs: mustprogress norecurse sspstrong uwtable
define dso_local i32 @main() local_unnamed_addr #3 {
  br label %1

1:                                                ; preds = %0, %72
  %2 = phi i32 [ 1, %0 ], [ %73, %72 ]
  %3 = icmp ne i32 %2, 5
  %4 = icmp eq i32 %2, 1
  %5 = icmp eq i32 %2, 5
  br label %6

6:                                                ; preds = %1, %69
  %7 = phi i32 [ 1, %1 ], [ %70, %69 ]
  %8 = icmp eq i32 %2, %7
  %9 = add nuw nsw i32 %2, %7
  %10 = icmp eq i32 %7, 2
  br i1 %8, label %69, label %11

11:                                               ; preds = %6, %66
  %12 = phi i32 [ %67, %66 ], [ 1, %6 ]
  %13 = icmp eq i32 %2, %12
  %14 = icmp eq i32 %7, %12
  %15 = add nuw nsw i32 %9, %12
  %16 = icmp eq i32 %12, 1
  %17 = icmp ne i32 %12, 1
  %18 = or i1 %14, %13
  br i1 %18, label %66, label %19

19:                                               ; preds = %11, %63
  %20 = phi i32 [ %64, %63 ], [ 1, %11 ]
  %21 = icmp eq i32 %2, %20
  %22 = icmp eq i32 %7, %20
  %23 = select i1 %21, i1 true, i1 %22
  %24 = icmp eq i32 %12, %20
  %25 = select i1 %23, i1 true, i1 %24
  br i1 %25, label %63, label %26

26:                                               ; preds = %19
  %27 = add nuw nsw i32 %15, %20
  %28 = sub nsw i32 15, %27
  %29 = and i32 %28, -2
  %30 = icmp eq i32 %29, 2
  br i1 %30, label %63, label %31

31:                                               ; preds = %26
  %32 = icmp eq i32 %28, 1
  %33 = select i1 %32, i1 %10, i1 false
  %34 = select i1 %33, i1 %3, i1 false
  %35 = select i1 %34, i1 %16, i1 false
  %36 = icmp ne i32 %20, 1
  %37 = select i1 %35, i1 %36, i1 false
  %38 = select i1 %37, i1 %4, i1 false
  br i1 %38, label %53, label %39

39:                                               ; preds = %31
  %40 = icmp ne i32 %28, 1
  %41 = select i1 %16, i1 %40, i1 false
  %42 = select i1 %41, i1 %10, i1 false
  %43 = select i1 %42, i1 %5, i1 false
  %44 = select i1 %43, i1 %16, i1 false
  %45 = select i1 %44, i1 %36, i1 false
  br i1 %45, label %53, label %46

46:                                               ; preds = %39
  %47 = icmp eq i32 %20, 1
  %48 = select i1 %47, i1 %40, i1 false
  %49 = select i1 %48, i1 %10, i1 false
  %50 = select i1 %49, i1 %3, i1 false
  %51 = select i1 %50, i1 %17, i1 false
  %52 = select i1 %51, i1 %36, i1 false
  br i1 %52, label %53, label %63

53:                                               ; preds = %46, %39, %31
  %54 = tail call nonnull align 8 dereferenceable(8) %"class.std::basic_ostream"* @_ZNSolsEi(%"class.std::basic_ostream"* nonnull align 8 dereferenceable(8) @_ZSt4cout, i32 %2)
  %55 = tail call nonnull align 8 dereferenceable(8) %"class.std::basic_ostream"* @_ZSt16__ostream_insertIcSt11char_traitsIcEERSt13basic_ostreamIT_T0_ES6_PKS3_l(%"class.std::basic_ostream"* nonnull align 8 dereferenceable(8) %54, i8* nonnull getelementptr inbounds ([2 x i8], [2 x i8]* @.str, i64 0, i64 0), i64 1)
  %56 = tail call nonnull align 8 dereferenceable(8) %"class.std::basic_ostream"* @_ZNSolsEi(%"class.std::basic_ostream"* nonnull align 8 dereferenceable(8) %54, i32 %7)
  %57 = tail call nonnull align 8 dereferenceable(8) %"class.std::basic_ostream"* @_ZSt16__ostream_insertIcSt11char_traitsIcEERSt13basic_ostreamIT_T0_ES6_PKS3_l(%"class.std::basic_ostream"* nonnull align 8 dereferenceable(8) %56, i8* nonnull getelementptr inbounds ([2 x i8], [2 x i8]* @.str, i64 0, i64 0), i64 1)
  %58 = tail call nonnull align 8 dereferenceable(8) %"class.std::basic_ostream"* @_ZNSolsEi(%"class.std::basic_ostream"* nonnull align 8 dereferenceable(8) %56, i32 %12)
  %59 = tail call nonnull align 8 dereferenceable(8) %"class.std::basic_ostream"* @_ZSt16__ostream_insertIcSt11char_traitsIcEERSt13basic_ostreamIT_T0_ES6_PKS3_l(%"class.std::basic_ostream"* nonnull align 8 dereferenceable(8) %58, i8* nonnull getelementptr inbounds ([2 x i8], [2 x i8]* @.str, i64 0, i64 0), i64 1)
  %60 = tail call nonnull align 8 dereferenceable(8) %"class.std::basic_ostream"* @_ZNSolsEi(%"class.std::basic_ostream"* nonnull align 8 dereferenceable(8) %58, i32 %20)
  %61 = tail call nonnull align 8 dereferenceable(8) %"class.std::basic_ostream"* @_ZSt16__ostream_insertIcSt11char_traitsIcEERSt13basic_ostreamIT_T0_ES6_PKS3_l(%"class.std::basic_ostream"* nonnull align 8 dereferenceable(8) %60, i8* nonnull getelementptr inbounds ([2 x i8], [2 x i8]* @.str, i64 0, i64 0), i64 1)
  %62 = tail call nonnull align 8 dereferenceable(8) %"class.std::basic_ostream"* @_ZNSolsEi(%"class.std::basic_ostream"* nonnull align 8 dereferenceable(8) %60, i32 %28)
  br label %63

63:                                               ; preds = %46, %19, %53, %26
  %64 = add nuw nsw i32 %20, 1
  %65 = icmp eq i32 %64, 6
  br i1 %65, label %66, label %19, !llvm.loop !5

66:                                               ; preds = %63, %11
  %67 = add nuw nsw i32 %12, 1
  %68 = icmp eq i32 %67, 6
  br i1 %68, label %69, label %11, !llvm.loop !7

69:                                               ; preds = %66, %6
  %70 = add nuw nsw i32 %7, 1
  %71 = icmp eq i32 %70, 6
  br i1 %71, label %72, label %6, !llvm.loop !8

72:                                               ; preds = %69
  %73 = add nuw nsw i32 %2, 1
  %74 = icmp eq i32 %73, 6
  br i1 %74, label %75, label %1, !llvm.loop !9

75:                                               ; preds = %72
  ret i32 0
}

declare nonnull align 8 dereferenceable(8) %"class.std::basic_ostream"* @_ZNSolsEi(%"class.std::basic_ostream"* nonnull align 8 dereferenceable(8), i32) local_unnamed_addr #0

declare nonnull align 8 dereferenceable(8) %"class.std::basic_ostream"* @_ZSt16__ostream_insertIcSt11char_traitsIcEERSt13basic_ostreamIT_T0_ES6_PKS3_l(%"class.std::basic_ostream"* nonnull align 8 dereferenceable(8), i8*, i64) local_unnamed_addr #0

; Function Attrs: sspstrong uwtable
define internal void @_GLOBAL__sub_I_1037.cpp() #4 section ".text.startup" {
  tail call void @_ZNSt8ios_base4InitC1Ev(%"class.std::ios_base::Init"* nonnull align 1 dereferenceable(1) @_ZStL8__ioinit)
  %1 = tail call i32 @__cxa_atexit(void (i8*)* bitcast (void (%"class.std::ios_base::Init"*)* @_ZNSt8ios_base4InitD1Ev to void (i8*)*), i8* getelementptr inbounds (%"class.std::ios_base::Init", %"class.std::ios_base::Init"* @_ZStL8__ioinit, i64 0, i32 0), i8* nonnull @__dso_handle) #5
  ret void
}


!llvm.module.flags = !{!0, !1, !2, !3}
!llvm.ident = !{!4}

!0 = !{i32 1, !"wchar_size", i32 4}
!1 = !{i32 7, !"PIC Level", i32 2}
!2 = !{i32 7, !"PIE Level", i32 2}
!3 = !{i32 7, !"uwtable", i32 1}
!4 = !{!"clang version 13.0.0"}
!5 = distinct !{!5, !6}
!6 = !{!"llvm.loop.mustprogress"}
!7 = distinct !{!7, !6}
!8 = distinct !{!8, !6}
!9 = distinct !{!9, !6}
